target datalayout = "e-m:e-p270:32:32-p271:32:32-p272:64:64-i64:64-i128:128-f80:128-n8:16:32:64-S128"
target triple = "x86_64-pc-linux-gnu"

%struct.pack_info = type { float, i32, i32, i8, i32, ptr, ptr, i32 }
%struct.boxf = type { %struct.pointf_s, %struct.pointf_s }
%struct.pointf_s = type { double, double }
%struct.Agobj_s = type { %struct.Agtag_s, ptr }
%struct.Agtag_s = type { i32, i64 }
%struct.Agraphinfo_t = type { %struct.Agrec_s, ptr, ptr, %struct.boxf, [4 x %struct.pointf_s], i8, i8, i8, i8, i32, double, double, i16, ptr, ptr, ptr, ptr, i32, ptr, ptr, ptr, ptr, i16, i16, i32, ptr, ptr, ptr, ptr, ptr, i32, ptr, ptr, %struct.nlist_t, ptr, ptr, i32, i32, i8, i8, i32, i32, i32, ptr, ptr, ptr, ptr, i8, i8, i8, i8, i8 }
%struct.Agrec_s = type { ptr, ptr }
%struct.nlist_t = type { ptr, i64 }

; Function Attrs: inlinehint nounwind uwtable
define internal void @expandbbf(ptr noundef %0, ptr noundef byval(%struct.boxf) align 8 %1) #2 {
  %3 = alloca ptr, align 8
  store ptr %0, ptr %3, align 8, !tbaa !12
  %4 = load ptr, ptr %3, align 8, !tbaa !12
  %5 = getelementptr inbounds nuw %struct.boxf, ptr %4, i32 0, i32 0
  %6 = getelementptr inbounds nuw %struct.pointf_s, ptr %5, i32 0, i32 0
  %7 = load double, ptr %6, align 8, !tbaa !62
  %8 = getelementptr inbounds nuw %struct.boxf, ptr %1, i32 0, i32 0
  %9 = getelementptr inbounds nuw %struct.pointf_s, ptr %8, i32 0, i32 0
  %10 = load double, ptr %9, align 8, !tbaa !62
  %11 = call double @llvm.minnum.f64(double %7, double %10)
  %12 = load ptr, ptr %3, align 8, !tbaa !12
  %13 = getelementptr inbounds nuw %struct.boxf, ptr %12, i32 0, i32 0
  %14 = getelementptr inbounds nuw %struct.pointf_s, ptr %13, i32 0, i32 0
  store double %11, ptr %14, align 8, !tbaa !62
  %15 = load ptr, ptr %3, align 8, !tbaa !12
  %16 = getelementptr inbounds nuw %struct.boxf, ptr %15, i32 0, i32 0
  %17 = getelementptr inbounds nuw %struct.pointf_s, ptr %16, i32 0, i32 1
  %18 = load double, ptr %17, align 8, !tbaa !63
  %19 = getelementptr inbounds nuw %struct.boxf, ptr %1, i32 0, i32 0
  %20 = getelementptr inbounds nuw %struct.pointf_s, ptr %19, i32 0, i32 1
  %21 = load double, ptr %20, align 8, !tbaa !63
  %22 = call double @llvm.minnum.f64(double %18, double %21)
  %23 = load ptr, ptr %3, align 8, !tbaa !12
  %24 = getelementptr inbounds nuw %struct.boxf, ptr %23, i32 0, i32 0
  %25 = getelementptr inbounds nuw %struct.pointf_s, ptr %24, i32 0, i32 1
  store double %22, ptr %25, align 8, !tbaa !63
  %26 = load ptr, ptr %3, align 8, !tbaa !12
  %27 = getelementptr inbounds nuw %struct.boxf, ptr %26, i32 0, i32 1
  %28 = getelementptr inbounds nuw %struct.pointf_s, ptr %27, i32 0, i32 0
  %29 = load double, ptr %28, align 8, !tbaa !64
  %30 = getelementptr inbounds nuw %struct.boxf, ptr %1, i32 0, i32 1
  %31 = getelementptr inbounds nuw %struct.pointf_s, ptr %30, i32 0, i32 0
  %32 = load double, ptr %31, align 8, !tbaa !64
  %33 = call double @llvm.maxnum.f64(double %29, double %32)
  %34 = load ptr, ptr %3, align 8, !tbaa !12
  %35 = getelementptr inbounds nuw %struct.boxf, ptr %34, i32 0, i32 1
  %36 = getelementptr inbounds nuw %struct.pointf_s, ptr %35, i32 0, i32 0
  store double %33, ptr %36, align 8, !tbaa !64
  %37 = load ptr, ptr %3, align 8, !tbaa !12
  %38 = getelementptr inbounds nuw %struct.boxf, ptr %37, i32 0, i32 1
  %39 = getelementptr inbounds nuw %struct.pointf_s, ptr %38, i32 0, i32 1
  %40 = load double, ptr %39, align 8, !tbaa !65
  %41 = getelementptr inbounds nuw %struct.boxf, ptr %1, i32 0, i32 1
  %42 = getelementptr inbounds nuw %struct.pointf_s, ptr %41, i32 0, i32 1
  %43 = load double, ptr %42, align 8, !tbaa !65
  %44 = call double @llvm.maxnum.f64(double %40, double %43)
  %45 = load ptr, ptr %3, align 8, !tbaa !12
  %46 = getelementptr inbounds nuw %struct.boxf, ptr %45, i32 0, i32 1
  %47 = getelementptr inbounds nuw %struct.pointf_s, ptr %46, i32 0, i32 1
  store double %44, ptr %47, align 8, !tbaa !65
  ret void
}

; Function Attrs: nounwind uwtable
define i32 @packGraphs(i64 noundef %0, ptr noundef %1, ptr noundef %2, ptr noundef %3) #0 {
  %5 = alloca i32, align 4
  %6 = alloca i64, align 8
  %7 = alloca ptr, align 8
  %8 = alloca ptr, align 8
  %9 = alloca ptr, align 8
  %10 = alloca i32, align 4
  %11 = alloca ptr, align 8
  %12 = alloca i32, align 4
  store i64 %0, ptr %6, align 8, !tbaa !3
  store ptr %1, ptr %7, align 8, !tbaa !7
  store ptr %2, ptr %8, align 8, !tbaa !10
  store ptr %3, ptr %9, align 8, !tbaa !12
  call void @llvm.lifetime.start.p0(i64 4, ptr %10) #12
  call void @llvm.lifetime.start.p0(i64 8, ptr %11) #12
  %13 = load i64, ptr %6, align 8, !tbaa !3
  %14 = load ptr, ptr %7, align 8, !tbaa !7
  %15 = load ptr, ptr %8, align 8, !tbaa !10
  %16 = load ptr, ptr %9, align 8, !tbaa !12
  %17 = call ptr @putGraphs(i64 noundef %13, ptr noundef %14, ptr noundef %15, ptr noundef %16)
  store ptr %17, ptr %11, align 8, !tbaa !13
  %18 = load ptr, ptr %11, align 8, !tbaa !13
  %19 = icmp ne ptr %18, null
  br i1 %19, label %21, label %20

20:                                               ; preds = %4
  store i32 1, ptr %5, align 4
  store i32 1, ptr %12, align 4
  br label %33

21:                                               ; preds = %4
  %22 = load i64, ptr %6, align 8, !tbaa !3
  %23 = load ptr, ptr %7, align 8, !tbaa !7
  %24 = load ptr, ptr %11, align 8, !tbaa !13
  %25 = load ptr, ptr %8, align 8, !tbaa !10
  %26 = load ptr, ptr %9, align 8, !tbaa !12
  %27 = getelementptr inbounds nuw %struct.pack_info, ptr %26, i32 0, i32 3
  %28 = load i8, ptr %27, align 4, !tbaa !151, !range !40, !noundef !41
  %29 = trunc i8 %28 to i1
  %30 = call i32 @shiftGraphs(i64 noundef %22, ptr noundef %23, ptr noundef %24, ptr noundef %25, i1 noundef zeroext %29)
  store i32 %30, ptr %10, align 4, !tbaa !35
  %31 = load ptr, ptr %11, align 8, !tbaa !13
  call void @free(ptr noundef %31) #12
  %32 = load i32, ptr %10, align 4, !tbaa !35
  store i32 %32, ptr %5, align 4
  store i32 1, ptr %12, align 4
  br label %33

33:                                               ; preds = %21, %20
  call void @llvm.lifetime.end.p0(i64 8, ptr %11) #12
  call void @llvm.lifetime.end.p0(i64 4, ptr %10) #12
  %34 = load i32, ptr %5, align 4
  ret i32 %34
}

; Function Attrs: nounwind uwtable
define i32 @packSubgraphs(i64 noundef %0, ptr noundef %1, ptr noundef %2, ptr noundef %3) #0 {
  %5 = alloca i64, align 8
  %6 = alloca ptr, align 8
  %7 = alloca ptr, align 8
  %8 = alloca ptr, align 8
  %9 = alloca i32, align 4
  %10 = alloca i32, align 4
  %11 = alloca %struct.boxf, align 8
  %12 = alloca ptr, align 8
  %13 = alloca i64, align 8
  store i64 %0, ptr %5, align 8, !tbaa !3
  store ptr %1, ptr %6, align 8, !tbaa !7
  store ptr %2, ptr %7, align 8, !tbaa !10
  store ptr %3, ptr %8, align 8, !tbaa !12
  call void @llvm.lifetime.start.p0(i64 4, ptr %9) #12
  %14 = load i64, ptr %5, align 8, !tbaa !3
  %15 = load ptr, ptr %6, align 8, !tbaa !7
  %16 = load ptr, ptr %7, align 8, !tbaa !10
  %17 = load ptr, ptr %8, align 8, !tbaa !12
  %18 = call i32 @packGraphs(i64 noundef %14, ptr noundef %15, ptr noundef %16, ptr noundef %17)
  store i32 %18, ptr %9, align 4, !tbaa !35
  %19 = load i32, ptr %9, align 4, !tbaa !35
  %20 = icmp eq i32 %19, 0
  br i1 %20, label %21, label %70

21:                                               ; preds = %4
  call void @llvm.lifetime.start.p0(i64 4, ptr %10) #12
  call void @llvm.lifetime.start.p0(i64 32, ptr %11) #12
  call void @llvm.lifetime.start.p0(i64 8, ptr %12) #12
  %22 = load ptr, ptr %7, align 8, !tbaa !10
  call void @compute_bb(ptr noundef %22)
  %23 = load ptr, ptr %7, align 8, !tbaa !10
  %24 = getelementptr inbounds nuw %struct.Agobj_s, ptr %23, i32 0, i32 1
  %25 = load ptr, ptr %24, align 8, !tbaa !22
  %26 = getelementptr inbounds nuw %struct.Agraphinfo_t, ptr %25, i32 0, i32 3
  call void @llvm.memcpy.p0.p0.i64(ptr align 8 %11, ptr align 8 %26, i64 32, i1 false), !tbaa.struct !26
  call void @llvm.lifetime.start.p0(i64 8, ptr %13) #12
  store i64 0, ptr %13, align 8, !tbaa !3
  br label %27

27:                                               ; preds = %62, %21
  %28 = load i64, ptr %13, align 8, !tbaa !3
  %29 = load i64, ptr %5, align 8, !tbaa !3
  %30 = icmp ult i64 %28, %29
  br i1 %30, label %32, label %31

31:                                               ; preds = %27
  call void @llvm.lifetime.end.p0(i64 8, ptr %13) #12
  br label %65

32:                                               ; preds = %27
  %33 = load ptr, ptr %6, align 8, !tbaa !7
  %34 = load i64, ptr %13, align 8, !tbaa !3
  %35 = getelementptr inbounds nuw ptr, ptr %33, i64 %34
  %36 = load ptr, ptr %35, align 8, !tbaa !10
  store ptr %36, ptr %12, align 8, !tbaa !10
  store i32 1, ptr %10, align 4, !tbaa !35
  br label %37

37:                                               ; preds = %58, %32
  %38 = load i32, ptr %10, align 4, !tbaa !35
  %39 = load ptr, ptr %12, align 8, !tbaa !10
  %40 = getelementptr inbounds nuw %struct.Agobj_s, ptr %39, i32 0, i32 1
  %41 = load ptr, ptr %40, align 8, !tbaa !22
  %42 = getelementptr inbounds nuw %struct.Agraphinfo_t, ptr %41, i32 0, i32 24
  %43 = load i32, ptr %42, align 4, !tbaa !148
  %44 = icmp sle i32 %38, %43
  br i1 %44, label %45, label %61

45:                                               ; preds = %37
  %46 = load ptr, ptr %12, align 8, !tbaa !10
  %47 = getelementptr inbounds nuw %struct.Agobj_s, ptr %46, i32 0, i32 1
  %48 = load ptr, ptr %47, align 8, !tbaa !22
  %49 = getelementptr inbounds nuw %struct.Agraphinfo_t, ptr %48, i32 0, i32 25
  %50 = load ptr, ptr %49, align 8, !tbaa !149
  %51 = load i32, ptr %10, align 4, !tbaa !35
  %52 = sext i32 %51 to i64
  %53 = getelementptr inbounds ptr, ptr %50, i64 %52
  %54 = load ptr, ptr %53, align 8, !tbaa !10
  %55 = getelementptr inbounds nuw %struct.Agobj_s, ptr %54, i32 0, i32 1
  %56 = load ptr, ptr %55, align 8, !tbaa !22
  %57 = getelementptr inbounds nuw %struct.Agraphinfo_t, ptr %56, i32 0, i32 3
  call void @expandbbf(ptr noundef %11, ptr noundef byval(%struct.boxf) align 8 %57)
  br label %58

58:                                               ; preds = %45
  %59 = load i32, ptr %10, align 4, !tbaa !35
  %60 = add nsw i32 %59, 1
  store i32 %60, ptr %10, align 4, !tbaa !35
  br label %37, !llvm.loop !152

61:                                               ; preds = %37
  br label %62

62:                                               ; preds = %61
  %63 = load i64, ptr %13, align 8, !tbaa !3
  %64 = add i64 %63, 1
  store i64 %64, ptr %13, align 8, !tbaa !3
  br label %27, !llvm.loop !153

65:                                               ; preds = %31
  %66 = load ptr, ptr %7, align 8, !tbaa !10
  %67 = getelementptr inbounds nuw %struct.Agobj_s, ptr %66, i32 0, i32 1
  %68 = load ptr, ptr %67, align 8, !tbaa !22
  %69 = getelementptr inbounds nuw %struct.Agraphinfo_t, ptr %68, i32 0, i32 3
  call void @llvm.memcpy.p0.p0.i64(ptr align 8 %69, ptr align 8 %11, i64 32, i1 false), !tbaa.struct !26
  call void @llvm.lifetime.end.p0(i64 8, ptr %12) #12
  call void @llvm.lifetime.end.p0(i64 32, ptr %11) #12
  call void @llvm.lifetime.end.p0(i64 4, ptr %10) #12
  br label %70

70:                                               ; preds = %65, %4
  %71 = load i32, ptr %9, align 4, !tbaa !35
  call void @llvm.lifetime.end.p0(i64 4, ptr %9) #12
  ret i32 %71
}