; Function Attrs: nounwind uwtable
define range(i32 0, 2) i32 @packSubgraphs(i64 noundef %0, ptr noundef readonly captures(none) %1, ptr noundef %2, ptr noundef captures(none) %3) local_unnamed_addr #0 {
  %5 = tail call ptr @putGraphs(i64 noundef %0, ptr noundef readonly %1, ptr noundef %2, ptr noundef %3)
  %.not.i = icmp eq ptr %5, null
  br i1 %.not.i, label %packGraphs.exit, label %6

6:                                                ; preds = %4
  %7 = getelementptr inbounds nuw i8, ptr %3, i64 12
  %8 = load i8, ptr %7, align 4, !tbaa !57, !range !19, !noundef !20
  %9 = trunc nuw i8 %8 to i1
  %10 = tail call i32 @shiftGraphs(i64 noundef %0, ptr noundef readonly %1, ptr noundef nonnull %5, ptr noundef %2, i1 noundef zeroext %9)
  tail call void @free(ptr noundef nonnull %5) #19
  tail call void @compute_bb(ptr noundef %2) #19
  %11 = getelementptr inbounds nuw i8, ptr %2, i64 16
  %12 = load ptr, ptr %11, align 8, !tbaa !21
  %13 = getelementptr inbounds nuw i8, ptr %12, i64 32
  %.sroa.0.0.copyload = load double, ptr %13, align 8, !tbaa !52
  %.sroa.6.0..sroa_idx = getelementptr inbounds nuw i8, ptr %12, i64 40
  %.sroa.6.0.copyload = load double, ptr %.sroa.6.0..sroa_idx, align 8, !tbaa !52
  %.sroa.8.0..sroa_idx = getelementptr inbounds nuw i8, ptr %12, i64 48
  %.sroa.8.0.copyload = load double, ptr %.sroa.8.0..sroa_idx, align 8, !tbaa !52
  %.sroa.10.0..sroa_idx = getelementptr inbounds nuw i8, ptr %12, i64 56
  %.sroa.10.0.copyload = load double, ptr %.sroa.10.0..sroa_idx, align 8, !tbaa !52
  %.not52 = icmp eq i64 %0, 0
  br i1 %.not52, label %._crit_edge47, label %.lr.ph46

._crit_edge47:                                    ; preds = %._crit_edge, %6
  %.sroa.10.0.lcssa = phi double [ %.sroa.10.0.copyload, %6 ], [ %.sroa.10.1.lcssa, %._crit_edge ]
  %.sroa.8.0.lcssa = phi double [ %.sroa.8.0.copyload, %6 ], [ %.sroa.8.1.lcssa, %._crit_edge ]
  %.sroa.6.0.lcssa = phi double [ %.sroa.6.0.copyload, %6 ], [ %.sroa.6.1.lcssa, %._crit_edge ]
  %.sroa.0.0.lcssa = phi double [ %.sroa.0.0.copyload, %6 ], [ %.sroa.0.1.lcssa, %._crit_edge ]
  store double %.sroa.0.0.lcssa, ptr %13, align 8, !tbaa !52
  store double %.sroa.6.0.lcssa, ptr %.sroa.6.0..sroa_idx, align 8, !tbaa !52
  store double %.sroa.8.0.lcssa, ptr %.sroa.8.0..sroa_idx, align 8, !tbaa !52
  store double %.sroa.10.0.lcssa, ptr %.sroa.10.0..sroa_idx, align 8, !tbaa !52
  br label %packGraphs.exit

.lr.ph46:                                         ; preds = %6, %._crit_edge
  %.044 = phi i64 [ %33, %._crit_edge ], [ 0, %6 ]
  %.sroa.0.043 = phi double [ %.sroa.0.1.lcssa, %._crit_edge ], [ %.sroa.0.0.copyload, %6 ]
  %.sroa.6.042 = phi double [ %.sroa.6.1.lcssa, %._crit_edge ], [ %.sroa.6.0.copyload, %6 ]
  %.sroa.8.041 = phi double [ %.sroa.8.1.lcssa, %._crit_edge ], [ %.sroa.8.0.copyload, %6 ]
  %.sroa.10.040 = phi double [ %.sroa.10.1.lcssa, %._crit_edge ], [ %.sroa.10.0.copyload, %6 ]
  %14 = getelementptr inbounds nuw ptr, ptr %1, i64 %.044
  %15 = load ptr, ptr %14, align 8, !tbaa !16
  %16 = getelementptr inbounds nuw i8, ptr %15, i64 16
  %17 = load ptr, ptr %16, align 8, !tbaa !21
  %18 = getelementptr inbounds nuw i8, ptr %17, i64 236
  %19 = load i32, ptr %18, align 4, !tbaa !58
  %.not31 = icmp slt i32 %19, 1
  br i1 %.not31, label %._crit_edge, label %.lr.ph

.lr.ph:                                           ; preds = %.lr.ph46
  %20 = getelementptr inbounds nuw i8, ptr %17, i64 240
  %21 = load ptr, ptr %20, align 8, !tbaa !68
  %22 = add nuw i32 %19, 1
  %wide.trip.count = zext i32 %22 to i64
  br label %23

23:                                               ; preds = %.lr.ph, %23
  %indvars.iv = phi i64 [ 1, %.lr.ph ], [ %indvars.iv.next, %23 ]
  %.sroa.0.135 = phi double [ %.sroa.0.043, %.lr.ph ], [ %29, %23 ]
  %.sroa.6.134 = phi double [ %.sroa.6.042, %.lr.ph ], [ %30, %23 ]
  %.sroa.8.133 = phi double [ %.sroa.8.041, %.lr.ph ], [ %31, %23 ]
  %.sroa.10.132 = phi double [ %.sroa.10.040, %.lr.ph ], [ %32, %23 ]
  %24 = getelementptr inbounds nuw ptr, ptr %21, i64 %indvars.iv
  %25 = load ptr, ptr %24, align 8, !tbaa !16
  %26 = getelementptr inbounds nuw i8, ptr %25, i64 16
  %27 = load ptr, ptr %26, align 8, !tbaa !21
  %28 = getelementptr inbounds nuw i8, ptr %27, i64 32
  %.sroa.026.0.copyload = load double, ptr %28, align 1
  %.sroa.4.0..sroa_idx = getelementptr inbounds nuw i8, ptr %27, i64 40
  %.sroa.4.0.copyload = load double, ptr %.sroa.4.0..sroa_idx, align 1
  %.sroa.5.0..sroa_idx = getelementptr inbounds nuw i8, ptr %27, i64 48
  %.sroa.5.0.copyload = load double, ptr %.sroa.5.0..sroa_idx, align 1
  %.sroa.627.0..sroa_idx = getelementptr inbounds nuw i8, ptr %27, i64 56
  %.sroa.627.0.copyload = load double, ptr %.sroa.627.0..sroa_idx, align 1
  %29 = tail call double @llvm.minnum.f64(double %.sroa.0.135, double %.sroa.026.0.copyload)
  %30 = tail call double @llvm.minnum.f64(double %.sroa.6.134, double %.sroa.4.0.copyload)
  %31 = tail call double @llvm.maxnum.f64(double %.sroa.8.133, double %.sroa.5.0.copyload)
  %32 = tail call double @llvm.maxnum.f64(double %.sroa.10.132, double %.sroa.627.0.copyload)
  %indvars.iv.next = add nuw nsw i64 %indvars.iv, 1
  %exitcond.not = icmp eq i64 %indvars.iv.next, %wide.trip.count
  br i1 %exitcond.not, label %._crit_edge, label %23, !llvm.loop !162

._crit_edge:                                      ; preds = %23, %.lr.ph46
  %.sroa.10.1.lcssa = phi double [ %.sroa.10.040, %.lr.ph46 ], [ %32, %23 ]
  %.sroa.8.1.lcssa = phi double [ %.sroa.8.041, %.lr.ph46 ], [ %31, %23 ]
  %.sroa.6.1.lcssa = phi double [ %.sroa.6.042, %.lr.ph46 ], [ %30, %23 ]
  %.sroa.0.1.lcssa = phi double [ %.sroa.0.043, %.lr.ph46 ], [ %29, %23 ]
  %33 = add nuw i64 %.044, 1
  %exitcond57.not = icmp eq i64 %33, %0
  br i1 %exitcond57.not, label %._crit_edge47, label %.lr.ph46, !llvm.loop !163

packGraphs.exit:                                  ; preds = %4, %._crit_edge47
  %.0.i29 = phi i32 [ 0, %._crit_edge47 ], [ 1, %4 ]
  ret i32 %.0.i29
}